; Function Attrs: nounwind uwtable
define dso_local i32 @GetConfigOptionFlags(ptr noundef %0, i1 noundef zeroext %1) local_unnamed_addr #0 {
  %3 = tail call ptr @find_option(ptr noundef %0, i1 noundef zeroext false, i1 noundef zeroext %1, i32 noundef 21)
  %4 = icmp eq ptr %3, null
  br i1 %4, label %8, label %5

5:                                                ; preds = %2
  %6 = getelementptr inbounds nuw i8, ptr %3, i64 32
  %7 = load i32, ptr %6, align 8
  br label %8

8:                                                ; preds = %2, %5
  %.0 = phi i32 [ %7, %5 ], [ 0, %2 ]
  ret i32 %.0
}